; Function Attrs: nounwind uwtable
define void @_ZTv0_n24_N3zmq16null_mechanism_tD0Ev(ptr noundef %0) unnamed_addr #4 align 2 personality ptr @__gxx_personality_v0 {
  %2 = load ptr, ptr %0, align 8, !tbaa !3
  %3 = getelementptr inbounds i8, ptr %2, i64 -24
  %4 = load i64, ptr %3, align 8
  %5 = getelementptr inbounds i8, ptr %0, i64 %4
  store ptr getelementptr inbounds nuw inrange(-24, 32) (i8, ptr @_ZTCN3zmq16null_mechanism_tE0_NS_12zap_client_tE, i64 24), ptr %5, align 8, !tbaa !3
  %6 = getelementptr inbounds nuw i8, ptr %5, i64 80
  store ptr getelementptr inbounds nuw inrange(-80, 72) (i8, ptr @_ZTCN3zmq16null_mechanism_tE0_NS_12zap_client_tE, i64 136), ptr %6, align 8, !tbaa !3
  %7 = getelementptr inbounds nuw i8, ptr %5, i64 40
  %8 = load ptr, ptr %7, align 8, !tbaa !6
  %9 = getelementptr inbounds nuw i8, ptr %5, i64 56
  %10 = icmp eq ptr %8, %9
  br i1 %10, label %_ZNKSt7__cxx1112basic_stringIcSt11char_traitsIcESaIcEE11_M_is_localEv.exit.thread.i.i.i.i.i.i, label %_ZNKSt7__cxx1112basic_stringIcSt11char_traitsIcESaIcEE11_M_is_localEv.exit.i.i.i.i.i.i

_ZNKSt7__cxx1112basic_stringIcSt11char_traitsIcESaIcEE11_M_is_localEv.exit.thread.i.i.i.i.i.i: ; preds = %1
  %11 = getelementptr inbounds nuw i8, ptr %5, i64 48
  %12 = load i64, ptr %11, align 8, !tbaa !13
  %13 = icmp ult i64 %12, 16
  tail call void @llvm.assume(i1 %13)
  br label %_ZNSt7__cxx1112basic_stringIcSt11char_traitsIcESaIcEED2Ev.exit.i.i.i.i

_ZNKSt7__cxx1112basic_stringIcSt11char_traitsIcESaIcEE11_M_is_localEv.exit.i.i.i.i.i.i: ; preds = %1
  tail call void @_ZdlPv(ptr noundef %8) #19
  br label %_ZNSt7__cxx1112basic_stringIcSt11char_traitsIcESaIcEED2Ev.exit.i.i.i.i

_ZNSt7__cxx1112basic_stringIcSt11char_traitsIcESaIcEED2Ev.exit.i.i.i.i: ; preds = %_ZNKSt7__cxx1112basic_stringIcSt11char_traitsIcESaIcEE11_M_is_localEv.exit.i.i.i.i.i.i, %_ZNKSt7__cxx1112basic_stringIcSt11char_traitsIcESaIcEE11_M_is_localEv.exit.thread.i.i.i.i.i.i
  %14 = getelementptr inbounds nuw i8, ptr %5, i64 8
  %15 = load ptr, ptr %14, align 8, !tbaa !6
  %16 = getelementptr inbounds nuw i8, ptr %5, i64 24
  %17 = icmp eq ptr %15, %16
  br i1 %17, label %_ZNKSt7__cxx1112basic_stringIcSt11char_traitsIcESaIcEE11_M_is_localEv.exit.thread.i.i3.i.i.i.i, label %_ZNKSt7__cxx1112basic_stringIcSt11char_traitsIcESaIcEE11_M_is_localEv.exit.i.i2.i.i.i.i

_ZNKSt7__cxx1112basic_stringIcSt11char_traitsIcESaIcEE11_M_is_localEv.exit.thread.i.i3.i.i.i.i: ; preds = %_ZNSt7__cxx1112basic_stringIcSt11char_traitsIcESaIcEED2Ev.exit.i.i.i.i
  %18 = getelementptr inbounds nuw i8, ptr %5, i64 16
  %19 = load i64, ptr %18, align 8, !tbaa !13
  %20 = icmp ult i64 %19, 16
  tail call void @llvm.assume(i1 %20)
  br label %_ZN3zmq16null_mechanism_tD0Ev.exit

_ZNKSt7__cxx1112basic_stringIcSt11char_traitsIcESaIcEE11_M_is_localEv.exit.i.i2.i.i.i.i: ; preds = %_ZNSt7__cxx1112basic_stringIcSt11char_traitsIcESaIcEED2Ev.exit.i.i.i.i
  tail call void @_ZdlPv(ptr noundef %15) #19
  br label %_ZN3zmq16null_mechanism_tD0Ev.exit

_ZN3zmq16null_mechanism_tD0Ev.exit:               ; preds = %_ZNKSt7__cxx1112basic_stringIcSt11char_traitsIcESaIcEE11_M_is_localEv.exit.thread.i.i3.i.i.i.i, %_ZNKSt7__cxx1112basic_stringIcSt11char_traitsIcESaIcEE11_M_is_localEv.exit.i.i2.i.i.i.i
  tail call void @_ZN3zmq11mechanism_tD2Ev(ptr noundef nonnull align 8 dereferenceable(1496) %6) #18
  tail call void @_ZdlPv(ptr noundef nonnull align 8 dereferenceable(1576) %5) #19
  ret void
}